target datalayout = "e-m:e-p270:32:32-p271:32:32-p272:64:64-i64:64-i128:128-f80:128-n8:16:32:64-S128"
target triple = "x86_64-pc-linux-gnu"

%struct.pmix_object_t = type { %union.pthread_mutex_t, ptr, i32, %struct.pmix_tma }
%struct.pmix_tma = type { ptr, ptr, ptr, ptr, ptr, ptr, ptr, ptr }
%union.pthread_mutex_t = type { %struct.__pthread_mutex_s }
%struct.__pthread_mutex_s = type { i32, i32, i32, i32, i32, i16, i16, %struct.__pthread_internal_list }
%struct.__pthread_internal_list = type { ptr, ptr }
%struct.pmix_list_t = type { %struct.pmix_object_t, %struct.pmix_list_item_t, i64 }
%struct.pmix_list_item_t = type { %struct.pmix_object_t, ptr, ptr, i32 }
%struct.pmix_iof_sink_t = type { %struct.pmix_list_item_t, %struct.pmix_proc, i16, %struct.pmix_iof_write_event_t, i8, i8, i8 }
%struct.pmix_proc = type { [256 x i8], i32 }
%struct.pmix_iof_write_event_t = type { %struct.pmix_list_item_t, i8, i8, i32, ptr, %struct.timeval, i32, %struct.pmix_list_t }
%struct.timeval = type { i64, i64 }
%struct.pmix_class_t = type { ptr, ptr, ptr, ptr, i32, i32, ptr, ptr, i64 }
%struct.pmix_iof_write_output_t = type { %struct.pmix_list_item_t, ptr, i32 }

@.str.41 = private unnamed_addr constant [21 x i8] c"pthread_mutex_lock()\00", align 1

; Function Attrs: inlinehint nounwind uwtable
define internal void @pmix_tma_free(ptr noundef %0, ptr noundef %1) #2 {
  %3 = alloca ptr, align 8
  %4 = alloca ptr, align 8
  store ptr %0, ptr %3, align 8, !tbaa !111
  store ptr %1, ptr %4, align 8, !tbaa !14
  %5 = load ptr, ptr %3, align 8, !tbaa !111
  %6 = icmp ne ptr null, %5
  br i1 %6, label %7, label %13

7:                                                ; preds = %2
  %8 = load ptr, ptr %3, align 8, !tbaa !111
  %9 = getelementptr inbounds nuw %struct.pmix_tma, ptr %8, i32 0, i32 5
  %10 = load ptr, ptr %9, align 8, !tbaa !150
  %11 = load ptr, ptr %3, align 8, !tbaa !111
  %12 = load ptr, ptr %4, align 8, !tbaa !14
  call void %10(ptr noundef %11, ptr noundef %12)
  br label %15

13:                                               ; preds = %2
  %14 = load ptr, ptr %4, align 8, !tbaa !14
  call void @free(ptr noundef %14) #13
  br label %15

15:                                               ; preds = %13, %7
  ret void
}

; Function Attrs: inlinehint nounwind uwtable
define internal void @pmix_obj_run_destructors(ptr noundef %0) #2 {
  %2 = alloca ptr, align 8
  %3 = alloca ptr, align 8
  store ptr %0, ptr %2, align 8, !tbaa !84
  call void @llvm.lifetime.start.p0(i64 8, ptr %3) #13
  %4 = load ptr, ptr %2, align 8, !tbaa !84
  %5 = getelementptr inbounds nuw %struct.pmix_object_t, ptr %4, i32 0, i32 1
  %6 = load ptr, ptr %5, align 8, !tbaa !116
  %7 = getelementptr inbounds nuw %struct.pmix_class_t, ptr %6, i32 0, i32 7
  %8 = load ptr, ptr %7, align 8, !tbaa !148
  store ptr %8, ptr %3, align 8, !tbaa !14
  br label %9

9:                                                ; preds = %13, %1
  %10 = load ptr, ptr %3, align 8, !tbaa !14
  %11 = load ptr, ptr %10, align 8, !tbaa !14
  %12 = icmp ne ptr null, %11
  br i1 %12, label %13, label %19

13:                                               ; preds = %9
  %14 = load ptr, ptr %3, align 8, !tbaa !14
  %15 = load ptr, ptr %14, align 8, !tbaa !14
  %16 = load ptr, ptr %2, align 8, !tbaa !84
  call void %15(ptr noundef %16)
  %17 = load ptr, ptr %3, align 8, !tbaa !14
  %18 = getelementptr inbounds nuw ptr, ptr %17, i32 1
  store ptr %18, ptr %3, align 8, !tbaa !14
  br label %9, !llvm.loop !149

19:                                               ; preds = %9
  call void @llvm.lifetime.end.p0(i64 8, ptr %3) #13
  ret void
}

; Function Attrs: alwaysinline nounwind uwtable
define internal i32 @pmix_obj_update(ptr noundef %0, i32 noundef %1) #5 {
  %3 = alloca ptr, align 8
  %4 = alloca i32, align 4
  %5 = alloca i32, align 4
  store ptr %0, ptr %3, align 8, !tbaa !84
  store i32 %1, ptr %4, align 4, !tbaa !81
  call void @llvm.lifetime.start.p0(i64 4, ptr %5) #13
  %6 = load ptr, ptr %3, align 8, !tbaa !84
  %7 = getelementptr inbounds nuw %struct.pmix_object_t, ptr %6, i32 0, i32 0
  %8 = call i32 @pthread_mutex_lock(ptr noundef %7) #13
  store i32 %8, ptr %5, align 4, !tbaa !81
  %9 = load i32, ptr %5, align 4, !tbaa !81
  %10 = icmp eq i32 %9, 35
  br i1 %10, label %11, label %14

11:                                               ; preds = %2
  %12 = load i32, ptr %5, align 4, !tbaa !81
  %13 = call ptr @__errno_location() #14
  store i32 %12, ptr %13, align 4, !tbaa !81
  call void @perror(ptr noundef @.str.41)
  call void @abort() #15
  unreachable

14:                                               ; preds = %2
  %15 = load i32, ptr %4, align 4, !tbaa !81
  %16 = load ptr, ptr %3, align 8, !tbaa !84
  %17 = getelementptr inbounds nuw %struct.pmix_object_t, ptr %16, i32 0, i32 2
  %18 = load i32, ptr %17, align 8, !tbaa !117
  %19 = add nsw i32 %18, %15
  store i32 %19, ptr %17, align 8, !tbaa !117
  store i32 %19, ptr %5, align 4, !tbaa !81
  %20 = load ptr, ptr %3, align 8, !tbaa !84
  %21 = getelementptr inbounds nuw %struct.pmix_object_t, ptr %20, i32 0, i32 0
  %22 = call i32 @pthread_mutex_unlock(ptr noundef %21) #13
  %23 = load i32, ptr %5, align 4, !tbaa !81
  call void @llvm.lifetime.end.p0(i64 4, ptr %5) #13
  ret i32 %23
}

; Function Attrs: inlinehint nounwind uwtable
define internal ptr @pmix_list_remove_first(ptr noundef %0) #2 {
  %2 = alloca ptr, align 8
  %3 = alloca ptr, align 8
  %4 = alloca ptr, align 8
  %5 = alloca i32, align 4
  store ptr %0, ptr %3, align 8, !tbaa !292
  call void @llvm.lifetime.start.p0(i64 8, ptr %4) #13
  %6 = load ptr, ptr %3, align 8, !tbaa !292
  %7 = getelementptr inbounds nuw %struct.pmix_list_t, ptr %6, i32 0, i32 2
  %8 = load volatile i64, ptr %7, align 8, !tbaa !296
  %9 = icmp eq i64 0, %8
  br i1 %9, label %10, label %11

10:                                               ; preds = %1
  store ptr null, ptr %2, align 8
  store i32 1, ptr %5, align 4
  br label %34

11:                                               ; preds = %1
  %12 = load ptr, ptr %3, align 8, !tbaa !292
  %13 = getelementptr inbounds nuw %struct.pmix_list_t, ptr %12, i32 0, i32 2
  %14 = load volatile i64, ptr %13, align 8, !tbaa !296
  %15 = add i64 %14, -1
  store volatile i64 %15, ptr %13, align 8, !tbaa !296
  %16 = load ptr, ptr %3, align 8, !tbaa !292
  %17 = getelementptr inbounds nuw %struct.pmix_list_t, ptr %16, i32 0, i32 1
  %18 = getelementptr inbounds nuw %struct.pmix_list_item_t, ptr %17, i32 0, i32 1
  %19 = load ptr, ptr %18, align 8, !tbaa !299
  store ptr %19, ptr %4, align 8, !tbaa !294
  %20 = load ptr, ptr %4, align 8, !tbaa !294
  %21 = getelementptr inbounds nuw %struct.pmix_list_item_t, ptr %20, i32 0, i32 2
  %22 = load volatile ptr, ptr %21, align 8, !tbaa !295
  %23 = load ptr, ptr %4, align 8, !tbaa !294
  %24 = getelementptr inbounds nuw %struct.pmix_list_item_t, ptr %23, i32 0, i32 1
  %25 = load volatile ptr, ptr %24, align 8, !tbaa !128
  %26 = getelementptr inbounds nuw %struct.pmix_list_item_t, ptr %25, i32 0, i32 2
  store volatile ptr %22, ptr %26, align 8, !tbaa !295
  %27 = load ptr, ptr %4, align 8, !tbaa !294
  %28 = getelementptr inbounds nuw %struct.pmix_list_item_t, ptr %27, i32 0, i32 1
  %29 = load volatile ptr, ptr %28, align 8, !tbaa !128
  %30 = load ptr, ptr %3, align 8, !tbaa !292
  %31 = getelementptr inbounds nuw %struct.pmix_list_t, ptr %30, i32 0, i32 1
  %32 = getelementptr inbounds nuw %struct.pmix_list_item_t, ptr %31, i32 0, i32 1
  store ptr %29, ptr %32, align 8, !tbaa !299
  %33 = load ptr, ptr %4, align 8, !tbaa !294
  store ptr %33, ptr %2, align 8
  store i32 1, ptr %5, align 4
  br label %34

34:                                               ; preds = %11, %10
  call void @llvm.lifetime.end.p0(i64 8, ptr %4) #13
  %35 = load ptr, ptr %2, align 8
  ret ptr %35
}

; Function Attrs: inlinehint nounwind uwtable
define internal zeroext i1 @pmix_list_is_empty(ptr noundef %0) #2 {
  %2 = alloca ptr, align 8
  store ptr %0, ptr %2, align 8, !tbaa !292
  %3 = load ptr, ptr %2, align 8, !tbaa !292
  %4 = getelementptr inbounds nuw %struct.pmix_list_t, ptr %3, i32 0, i32 1
  %5 = getelementptr inbounds nuw %struct.pmix_list_item_t, ptr %4, i32 0, i32 1
  %6 = load ptr, ptr %5, align 8, !tbaa !299
  %7 = load ptr, ptr %2, align 8, !tbaa !292
  %8 = getelementptr inbounds nuw %struct.pmix_list_t, ptr %7, i32 0, i32 1
  %9 = icmp eq ptr %6, %8
  %10 = select i1 %9, i32 1, i32 0
  %11 = icmp ne i32 %10, 0
  ret i1 %11
}

; Function Attrs: nounwind uwtable
define void @pmix_iof_static_dump_output(ptr noundef %0) #0 {
  %2 = alloca ptr, align 8
  %3 = alloca i8, align 1
  %4 = alloca i32, align 4
  %5 = alloca ptr, align 8
  %6 = alloca ptr, align 8
  %7 = alloca ptr, align 8
  store ptr %0, ptr %2, align 8, !tbaa !14
  call void @llvm.lifetime.start.p0(i64 1, ptr %3) #13
  call void @llvm.lifetime.start.p0(i64 4, ptr %4) #13
  call void @llvm.lifetime.start.p0(i64 8, ptr %5) #13
  %8 = load ptr, ptr %2, align 8, !tbaa !14
  %9 = getelementptr inbounds nuw %struct.pmix_iof_sink_t, ptr %8, i32 0, i32 3
  store ptr %9, ptr %5, align 8, !tbaa !14
  call void @llvm.lifetime.start.p0(i64 8, ptr %6) #13
  %10 = load ptr, ptr %5, align 8, !tbaa !14
  %11 = getelementptr inbounds nuw %struct.pmix_iof_write_event_t, ptr %10, i32 0, i32 7
  %12 = call zeroext i1 @pmix_list_is_empty(ptr noundef %11)
  br i1 %12, label %71, label %13

13:                                               ; preds = %1
  store i8 0, ptr %3, align 1, !tbaa !138
  br label %14

14:                                               ; preds = %69, %13
  %15 = load ptr, ptr %5, align 8, !tbaa !14
  %16 = getelementptr inbounds nuw %struct.pmix_iof_write_event_t, ptr %15, i32 0, i32 7
  %17 = call ptr @pmix_list_remove_first(ptr noundef %16)
  store ptr %17, ptr %6, align 8, !tbaa !14
  %18 = icmp ne ptr null, %17
  br i1 %18, label %19, label %70

19:                                               ; preds = %14
  %20 = load i8, ptr %3, align 1, !tbaa !138, !range !24, !noundef !25
  %21 = trunc i8 %20 to i1
  br i1 %21, label %47, label %22

22:                                               ; preds = %19
  %23 = load ptr, ptr %6, align 8, !tbaa !14
  %24 = getelementptr inbounds nuw %struct.pmix_iof_write_output_t, ptr %23, i32 0, i32 2
  %25 = load i32, ptr %24, align 8, !tbaa !259
  %26 = icmp slt i32 0, %25
  br i1 %26, label %27, label %47

27:                                               ; preds = %22
  %28 = load ptr, ptr %5, align 8, !tbaa !14
  %29 = getelementptr inbounds nuw %struct.pmix_iof_write_event_t, ptr %28, i32 0, i32 6
  %30 = load i32, ptr %29, align 8, !tbaa !238
  %31 = load ptr, ptr %6, align 8, !tbaa !14
  %32 = getelementptr inbounds nuw %struct.pmix_iof_write_output_t, ptr %31, i32 0, i32 1
  %33 = load ptr, ptr %32, align 8, !tbaa !257
  %34 = load ptr, ptr %6, align 8, !tbaa !14
  %35 = getelementptr inbounds nuw %struct.pmix_iof_write_output_t, ptr %34, i32 0, i32 2
  %36 = load i32, ptr %35, align 8, !tbaa !259
  %37 = sext i32 %36 to i64
  %38 = call i64 @write(i32 noundef %30, ptr noundef %33, i64 noundef %37)
  %39 = trunc i64 %38 to i32
  store i32 %39, ptr %4, align 4, !tbaa !81
  %40 = load i32, ptr %4, align 4, !tbaa !81
  %41 = load ptr, ptr %6, align 8, !tbaa !14
  %42 = getelementptr inbounds nuw %struct.pmix_iof_write_output_t, ptr %41, i32 0, i32 2
  %43 = load i32, ptr %42, align 8, !tbaa !259
  %44 = icmp slt i32 %40, %43
  br i1 %44, label %45, label %46

45:                                               ; preds = %27
  store i8 1, ptr %3, align 1, !tbaa !138
  br label %46

46:                                               ; preds = %45, %27
  br label %47

47:                                               ; preds = %46, %22, %19
  br label %48

48:                                               ; preds = %47
  call void @llvm.lifetime.start.p0(i64 8, ptr %7) #13
  %49 = load ptr, ptr %6, align 8, !tbaa !14
  store ptr %49, ptr %7, align 8, !tbaa !84
  %50 = load ptr, ptr %7, align 8, !tbaa !84
  %51 = call i32 @pmix_obj_update(ptr noundef %50, i32 noundef -1)
  %52 = icmp eq i32 0, %51
  br i1 %52, label %53, label %67

53:                                               ; preds = %48
  %54 = load ptr, ptr %7, align 8, !tbaa !84
  call void @pmix_obj_run_destructors(ptr noundef %54)
  %55 = load ptr, ptr %7, align 8, !tbaa !84
  %56 = getelementptr inbounds nuw %struct.pmix_object_t, ptr %55, i32 0, i32 3
  %57 = getelementptr inbounds nuw %struct.pmix_tma, ptr %56, i32 0, i32 5
  %58 = load ptr, ptr %57, align 8, !tbaa !86
  %59 = icmp ne ptr null, %58
  br i1 %59, label %60, label %64

60:                                               ; preds = %53
  %61 = load ptr, ptr %7, align 8, !tbaa !84
  %62 = getelementptr inbounds nuw %struct.pmix_object_t, ptr %61, i32 0, i32 3
  %63 = load ptr, ptr %6, align 8, !tbaa !14
  call void @pmix_tma_free(ptr noundef %62, ptr noundef %63)
  br label %66

64:                                               ; preds = %53
  %65 = load ptr, ptr %6, align 8, !tbaa !14
  call void @free(ptr noundef %65) #13
  br label %66

66:                                               ; preds = %64, %60
  store ptr null, ptr %6, align 8, !tbaa !14
  br label %67

67:                                               ; preds = %66, %48
  call void @llvm.lifetime.end.p0(i64 8, ptr %7) #13
  br label %68

68:                                               ; preds = %67
  br label %69

69:                                               ; preds = %68
  br label %14, !llvm.loop !298

70:                                               ; preds = %14
  br label %71

71:                                               ; preds = %70, %1
  call void @llvm.lifetime.end.p0(i64 8, ptr %6) #13
  call void @llvm.lifetime.end.p0(i64 8, ptr %5) #13
  call void @llvm.lifetime.end.p0(i64 4, ptr %4) #13
  call void @llvm.lifetime.end.p0(i64 1, ptr %3) #13
  ret void
}