; Function Attrs: nounwind uwtable
define void @pmix_iof_static_dump_output(ptr noundef %0) local_unnamed_addr #0 {
  %2 = getelementptr inbounds nuw i8, ptr %0, i64 712
  %3 = getelementptr inbounds nuw i8, ptr %0, i64 832
  %4 = load ptr, ptr %3, align 8, !tbaa !249
  %5 = icmp eq ptr %4, %2
  br i1 %5, label %pmix_list_remove_first.exit.thread, label %.preheader

.preheader:                                       ; preds = %1
  %6 = getelementptr inbounds nuw i8, ptr %0, i64 856
  %7 = load volatile i64, ptr %6, align 8, !tbaa !217
  %8 = icmp eq i64 %7, 0
  br i1 %8, label %pmix_list_remove_first.exit.thread, label %.lr.ph

.lr.ph:                                           ; preds = %.preheader
  %9 = getelementptr inbounds nuw i8, ptr %0, i64 584
  br label %10

10:                                               ; preds = %.lr.ph, %57
  %.022 = phi i1 [ false, %.lr.ph ], [ %.1, %57 ]
  %11 = load volatile i64, ptr %6, align 8, !tbaa !217
  %12 = add i64 %11, -1
  store volatile i64 %12, ptr %6, align 8, !tbaa !217
  %13 = load ptr, ptr %3, align 8, !tbaa !249
  %14 = getelementptr inbounds nuw i8, ptr %13, i64 128
  %15 = load volatile ptr, ptr %14, align 8, !tbaa !216
  %16 = getelementptr inbounds nuw i8, ptr %13, i64 120
  %17 = load volatile ptr, ptr %16, align 8, !tbaa !115
  %18 = getelementptr inbounds nuw i8, ptr %17, i64 128
  store volatile ptr %15, ptr %18, align 8, !tbaa !216
  %19 = load volatile ptr, ptr %16, align 8, !tbaa !115
  store ptr %19, ptr %3, align 8, !tbaa !249
  br i1 %.022, label %33, label %20

20:                                               ; preds = %10
  %21 = getelementptr inbounds nuw i8, ptr %13, i64 152
  %22 = load i32, ptr %21, align 8, !tbaa !235
  %23 = icmp sgt i32 %22, 0
  br i1 %23, label %24, label %33

24:                                               ; preds = %20
  %25 = load i32, ptr %9, align 8, !tbaa !211
  %26 = getelementptr inbounds nuw i8, ptr %13, i64 144
  %27 = load ptr, ptr %26, align 8, !tbaa !233
  %28 = zext nneg i32 %22 to i64
  %29 = tail call i64 @write(i32 noundef %25, ptr noundef %27, i64 noundef %28) #18
  %30 = trunc i64 %29 to i32
  %31 = load i32, ptr %21, align 8, !tbaa !235
  %32 = icmp sgt i32 %31, %30
  br label %33

33:                                               ; preds = %24, %10, %20
  %.1 = phi i1 [ true, %10 ], [ false, %20 ], [ %32, %24 ]
  %34 = tail call i32 @pthread_mutex_lock(ptr noundef nonnull %13) #18
  %35 = icmp eq i32 %34, 35
  br i1 %35, label %36, label %pmix_obj_update.exit

36:                                               ; preds = %33
  %37 = tail call ptr @__errno_location() #20
  store i32 35, ptr %37, align 4, !tbaa !63
  tail call void @perror(ptr noundef nonnull @.str.41) #21
  tail call void @abort() #22
  unreachable

pmix_obj_update.exit:                             ; preds = %33
  %38 = getelementptr inbounds nuw i8, ptr %13, i64 48
  %39 = load i32, ptr %38, align 8, !tbaa !66
  %40 = add nsw i32 %39, -1
  store i32 %40, ptr %38, align 8, !tbaa !66
  %41 = tail call i32 @pthread_mutex_unlock(ptr noundef nonnull %13) #18
  %42 = icmp eq i32 %40, 0
  br i1 %42, label %43, label %57

43:                                               ; preds = %pmix_obj_update.exit
  %44 = getelementptr inbounds nuw i8, ptr %13, i64 40
  %45 = load ptr, ptr %44, align 8, !tbaa !65
  %46 = getelementptr inbounds nuw i8, ptr %45, i64 48
  %47 = load ptr, ptr %46, align 8, !tbaa !88
  %48 = load ptr, ptr %47, align 8, !tbaa !68
  %.not6.i = icmp eq ptr %48, null
  br i1 %.not6.i, label %pmix_obj_run_destructors.exit, label %.lr.ph.i

.lr.ph.i:                                         ; preds = %43, %.lr.ph.i
  %49 = phi ptr [ %51, %.lr.ph.i ], [ %48, %43 ]
  %.07.i = phi ptr [ %50, %.lr.ph.i ], [ %47, %43 ]
  tail call void %49(ptr noundef nonnull %13) #18
  %50 = getelementptr inbounds nuw i8, ptr %.07.i, i64 8
  %51 = load ptr, ptr %50, align 8, !tbaa !68
  %.not.i = icmp eq ptr %51, null
  br i1 %.not.i, label %pmix_obj_run_destructors.exit, label %.lr.ph.i, !llvm.loop !89

pmix_obj_run_destructors.exit:                    ; preds = %.lr.ph.i, %43
  %52 = getelementptr inbounds nuw i8, ptr %13, i64 96
  %53 = load ptr, ptr %52, align 8, !tbaa !90
  %.not18 = icmp eq ptr %53, null
  br i1 %.not18, label %56, label %54

54:                                               ; preds = %pmix_obj_run_destructors.exit
  %55 = getelementptr inbounds nuw i8, ptr %13, i64 56
  tail call void %53(ptr noundef nonnull %55, ptr noundef nonnull %13) #18
  br label %57

56:                                               ; preds = %pmix_obj_run_destructors.exit
  tail call void @free(ptr noundef nonnull %13) #18
  br label %57

57:                                               ; preds = %54, %56, %pmix_obj_update.exit
  %58 = load volatile i64, ptr %6, align 8, !tbaa !217
  %59 = icmp eq i64 %58, 0
  br i1 %59, label %pmix_list_remove_first.exit.thread, label %10, !llvm.loop !269

pmix_list_remove_first.exit.thread:               ; preds = %57, %.preheader, %1
  ret void
}